target datalayout = "e-m:e-p270:32:32-p271:32:32-p272:64:64-i64:64-i128:128-f80:128-n8:16:32:64-S128"
target triple = "x86_64-pc-linux-gnu"

%union.attr_s = type { %struct.anon }
%struct.anon = type { i64 }
%struct.attrbuf_s = type { ptr, i64, i64, ptr }
%struct.alloc_s = type { ptr, ptr, ptr }

; Function Attrs: inlinehint nounwind uwtable
define internal i64 @to_size_t(i64 noundef %0) #4 {
  %2 = alloca i64, align 8
  store i64 %0, ptr %2, align 8, !tbaa !9
  %3 = load i64, ptr %2, align 8, !tbaa !9
  %4 = icmp sge i64 %3, 0
  br i1 %4, label %5, label %7

5:                                                ; preds = %1
  %6 = load i64, ptr %2, align 8, !tbaa !9
  br label %8

7:                                                ; preds = %1
  br label %8

8:                                                ; preds = %7, %5
  %9 = phi i64 [ %6, %5 ], [ 0, %7 ]
  ret i64 %9
}

; Function Attrs: nounwind uwtable
define internal ptr @mem_realloc(ptr noundef %0, ptr noundef %1, i64 noundef %2) #0 {
  %4 = alloca ptr, align 8
  %5 = alloca ptr, align 8
  %6 = alloca i64, align 8
  store ptr %0, ptr %4, align 8, !tbaa !34
  store ptr %1, ptr %5, align 8, !tbaa !51
  store i64 %2, ptr %6, align 8, !tbaa !9
  %7 = load ptr, ptr %4, align 8, !tbaa !34
  %8 = getelementptr inbounds nuw %struct.alloc_s, ptr %7, i32 0, i32 1
  %9 = load ptr, ptr %8, align 8, !tbaa !180
  %10 = load ptr, ptr %5, align 8, !tbaa !51
  %11 = load i64, ptr %6, align 8, !tbaa !9
  %12 = call i64 @to_size_t(i64 noundef %11)
  %13 = call ptr %9(ptr noundef %10, i64 noundef %12)
  ret ptr %13
}

; Function Attrs: nounwind uwtable
define internal i64 @attr_update_with(i64 %0, i64 %1) #0 {
  %3 = alloca %union.attr_s, align 8
  %4 = alloca %union.attr_s, align 8
  %5 = alloca %union.attr_s, align 8
  %6 = getelementptr inbounds nuw %union.attr_s, ptr %4, i32 0, i32 0
  %7 = getelementptr inbounds nuw %struct.anon, ptr %6, i32 0, i32 0
  store i64 %0, ptr %7, align 8
  %8 = getelementptr inbounds nuw %union.attr_s, ptr %5, i32 0, i32 0
  %9 = getelementptr inbounds nuw %struct.anon, ptr %8, i32 0, i32 0
  store i64 %1, ptr %9, align 8
  call void @llvm.memcpy.p0.p0.i64(ptr align 8 %3, ptr align 8 %4, i64 8, i1 false), !tbaa.struct !28
  %10 = load i64, ptr %5, align 8
  %11 = and i64 %10, 268435455
  %12 = trunc i64 %11 to i32
  %13 = icmp ne i32 %12, 0
  br i1 %13, label %14, label %23

14:                                               ; preds = %2
  %15 = load i64, ptr %5, align 8
  %16 = and i64 %15, 268435455
  %17 = trunc i64 %16 to i32
  %18 = zext i32 %17 to i64
  %19 = load i64, ptr %3, align 8
  %20 = and i64 %18, 268435455
  %21 = and i64 %19, -268435456
  %22 = or i64 %21, %20
  store i64 %22, ptr %3, align 8
  br label %23

23:                                               ; preds = %14, %2
  %24 = load i64, ptr %5, align 8
  %25 = lshr i64 %24, 32
  %26 = and i64 %25, 268435455
  %27 = trunc i64 %26 to i32
  %28 = icmp ne i32 %27, 0
  br i1 %28, label %29, label %40

29:                                               ; preds = %23
  %30 = load i64, ptr %5, align 8
  %31 = lshr i64 %30, 32
  %32 = and i64 %31, 268435455
  %33 = trunc i64 %32 to i32
  %34 = zext i32 %33 to i64
  %35 = load i64, ptr %3, align 8
  %36 = and i64 %34, 268435455
  %37 = shl i64 %36, 32
  %38 = and i64 %35, -1152921500311879681
  %39 = or i64 %38, %37
  store i64 %39, ptr %3, align 8
  br label %40

40:                                               ; preds = %29, %23
  %41 = load i64, ptr %5, align 8
  %42 = shl i64 %41, 34
  %43 = ashr i64 %42, 62
  %44 = trunc i64 %43 to i32
  %45 = icmp ne i32 %44, 0
  br i1 %45, label %46, label %57

46:                                               ; preds = %40
  %47 = load i64, ptr %5, align 8
  %48 = shl i64 %47, 34
  %49 = ashr i64 %48, 62
  %50 = trunc i64 %49 to i32
  %51 = zext i32 %50 to i64
  %52 = load i64, ptr %3, align 8
  %53 = and i64 %51, 3
  %54 = shl i64 %53, 28
  %55 = and i64 %52, -805306369
  %56 = or i64 %55, %54
  store i64 %56, ptr %3, align 8
  br label %57

57:                                               ; preds = %46, %40
  %58 = load i64, ptr %5, align 8
  %59 = ashr i64 %58, 62
  %60 = trunc i64 %59 to i32
  %61 = icmp ne i32 %60, 0
  br i1 %61, label %62, label %72

62:                                               ; preds = %57
  %63 = load i64, ptr %5, align 8
  %64 = ashr i64 %63, 62
  %65 = trunc i64 %64 to i32
  %66 = zext i32 %65 to i64
  %67 = load i64, ptr %3, align 8
  %68 = and i64 %66, 3
  %69 = shl i64 %68, 62
  %70 = and i64 %67, 4611686018427387903
  %71 = or i64 %70, %69
  store i64 %71, ptr %3, align 8
  br label %72

72:                                               ; preds = %62, %57
  %73 = load i64, ptr %5, align 8
  %74 = shl i64 %73, 32
  %75 = ashr i64 %74, 62
  %76 = trunc i64 %75 to i32
  %77 = icmp ne i32 %76, 0
  br i1 %77, label %78, label %89

78:                                               ; preds = %72
  %79 = load i64, ptr %5, align 8
  %80 = shl i64 %79, 32
  %81 = ashr i64 %80, 62
  %82 = trunc i64 %81 to i32
  %83 = zext i32 %82 to i64
  %84 = load i64, ptr %3, align 8
  %85 = and i64 %83, 3
  %86 = shl i64 %85, 30
  %87 = and i64 %84, -3221225473
  %88 = or i64 %87, %86
  store i64 %88, ptr %3, align 8
  br label %89

89:                                               ; preds = %78, %72
  %90 = load i64, ptr %5, align 8
  %91 = shl i64 %90, 2
  %92 = ashr i64 %91, 62
  %93 = trunc i64 %92 to i32
  %94 = icmp ne i32 %93, 0
  br i1 %94, label %95, label %106

95:                                               ; preds = %89
  %96 = load i64, ptr %5, align 8
  %97 = shl i64 %96, 2
  %98 = ashr i64 %97, 62
  %99 = trunc i64 %98 to i32
  %100 = zext i32 %99 to i64
  %101 = load i64, ptr %3, align 8
  %102 = and i64 %100, 3
  %103 = shl i64 %102, 60
  %104 = and i64 %101, -3458764513820540929
  %105 = or i64 %104, %103
  store i64 %105, ptr %3, align 8
  br label %106

106:                                              ; preds = %95, %89
  %107 = getelementptr inbounds nuw %union.attr_s, ptr %3, i32 0, i32 0
  %108 = getelementptr inbounds nuw %struct.anon, ptr %107, i32 0, i32 0
  %109 = load i64, ptr %108, align 8
  ret i64 %109
}

; Function Attrs: nounwind uwtable
define internal i64 @attr_none() #0 {
  %1 = alloca %union.attr_s, align 8
  store i64 0, ptr %1, align 8, !tbaa !13
  %2 = getelementptr inbounds nuw %union.attr_s, ptr %1, i32 0, i32 0
  %3 = getelementptr inbounds nuw %struct.anon, ptr %2, i32 0, i32 0
  %4 = load i64, ptr %3, align 8
  ret i64 %4
}

; Function Attrs: nounwind uwtable
define internal zeroext i1 @attrbuf_ensure_capacity(ptr noundef %0, i64 noundef %1) #0 {
  %3 = alloca i1, align 1
  %4 = alloca ptr, align 8
  %5 = alloca i64, align 8
  %6 = alloca i64, align 8
  %7 = alloca ptr, align 8
  %8 = alloca i32, align 4
  store ptr %0, ptr %4, align 8, !tbaa !30
  store i64 %1, ptr %5, align 8, !tbaa !9
  %9 = load i64, ptr %5, align 8, !tbaa !9
  %10 = load ptr, ptr %4, align 8, !tbaa !30
  %11 = getelementptr inbounds nuw %struct.attrbuf_s, ptr %10, i32 0, i32 1
  %12 = load i64, ptr %11, align 8, !tbaa !216
  %13 = icmp sle i64 %9, %12
  br i1 %13, label %14, label %15

14:                                               ; preds = %2
  store i1 true, ptr %3, align 1
  br label %66

15:                                               ; preds = %2
  call void @llvm.lifetime.start.p0(i64 8, ptr %6) #13
  %16 = load ptr, ptr %4, align 8, !tbaa !30
  %17 = getelementptr inbounds nuw %struct.attrbuf_s, ptr %16, i32 0, i32 1
  %18 = load i64, ptr %17, align 8, !tbaa !216
  %19 = icmp sle i64 %18, 0
  br i1 %19, label %20, label %21

20:                                               ; preds = %15
  br label %38

21:                                               ; preds = %15
  %22 = load ptr, ptr %4, align 8, !tbaa !30
  %23 = getelementptr inbounds nuw %struct.attrbuf_s, ptr %22, i32 0, i32 1
  %24 = load i64, ptr %23, align 8, !tbaa !216
  %25 = icmp sgt i64 %24, 1000
  br i1 %25, label %26, label %31

26:                                               ; preds = %21
  %27 = load ptr, ptr %4, align 8, !tbaa !30
  %28 = getelementptr inbounds nuw %struct.attrbuf_s, ptr %27, i32 0, i32 1
  %29 = load i64, ptr %28, align 8, !tbaa !216
  %30 = add nsw i64 %29, 1000
  br label %36

31:                                               ; preds = %21
  %32 = load ptr, ptr %4, align 8, !tbaa !30
  %33 = getelementptr inbounds nuw %struct.attrbuf_s, ptr %32, i32 0, i32 1
  %34 = load i64, ptr %33, align 8, !tbaa !216
  %35 = mul nsw i64 2, %34
  br label %36

36:                                               ; preds = %31, %26
  %37 = phi i64 [ %30, %26 ], [ %35, %31 ]
  br label %38

38:                                               ; preds = %36, %20
  %39 = phi i64 [ 240, %20 ], [ %37, %36 ]
  store i64 %39, ptr %6, align 8, !tbaa !9
  %40 = load i64, ptr %5, align 8, !tbaa !9
  %41 = load i64, ptr %6, align 8, !tbaa !9
  %42 = icmp sgt i64 %40, %41
  br i1 %42, label %43, label %45

43:                                               ; preds = %38
  %44 = load i64, ptr %5, align 8, !tbaa !9
  store i64 %44, ptr %6, align 8, !tbaa !9
  br label %45

45:                                               ; preds = %43, %38
  call void @llvm.lifetime.start.p0(i64 8, ptr %7) #13
  %46 = load ptr, ptr %4, align 8, !tbaa !30
  %47 = getelementptr inbounds nuw %struct.attrbuf_s, ptr %46, i32 0, i32 3
  %48 = load ptr, ptr %47, align 8, !tbaa !35
  %49 = load ptr, ptr %4, align 8, !tbaa !30
  %50 = getelementptr inbounds nuw %struct.attrbuf_s, ptr %49, i32 0, i32 0
  %51 = load ptr, ptr %50, align 8, !tbaa !47
  %52 = load i64, ptr %6, align 8, !tbaa !9
  %53 = mul nsw i64 %52, 8
  %54 = call ptr @mem_realloc(ptr noundef %48, ptr noundef %51, i64 noundef %53)
  store ptr %54, ptr %7, align 8, !tbaa !203
  %55 = load ptr, ptr %7, align 8, !tbaa !203
  %56 = icmp eq ptr %55, null
  br i1 %56, label %57, label %58

57:                                               ; preds = %45
  store i1 false, ptr %3, align 1
  store i32 1, ptr %8, align 4
  br label %65

58:                                               ; preds = %45
  %59 = load ptr, ptr %7, align 8, !tbaa !203
  %60 = load ptr, ptr %4, align 8, !tbaa !30
  %61 = getelementptr inbounds nuw %struct.attrbuf_s, ptr %60, i32 0, i32 0
  store ptr %59, ptr %61, align 8, !tbaa !47
  %62 = load i64, ptr %6, align 8, !tbaa !9
  %63 = load ptr, ptr %4, align 8, !tbaa !30
  %64 = getelementptr inbounds nuw %struct.attrbuf_s, ptr %63, i32 0, i32 1
  store i64 %62, ptr %64, align 8, !tbaa !216
  store i1 true, ptr %3, align 1
  store i32 1, ptr %8, align 4
  br label %65

65:                                               ; preds = %58, %57
  call void @llvm.lifetime.end.p0(i64 8, ptr %7) #13
  call void @llvm.lifetime.end.p0(i64 8, ptr %6) #13
  br label %66

66:                                               ; preds = %65, %14
  %67 = load i1, ptr %3, align 1
  ret i1 %67
}

; Function Attrs: nounwind uwtable
define internal void @attrbuf_update_set_at(ptr noundef %0, i64 noundef %1, i64 noundef %2, i64 %3, i1 noundef zeroext %4) #0 {
  %6 = alloca %union.attr_s, align 8
  %7 = alloca ptr, align 8
  %8 = alloca i64, align 8
  %9 = alloca i64, align 8
  %10 = alloca i8, align 1
  %11 = alloca i64, align 8
  %12 = alloca i32, align 4
  %13 = alloca i64, align 8
  %14 = alloca %union.attr_s, align 8
  %15 = alloca %union.attr_s, align 8
  %16 = alloca i1, align 1
  %17 = getelementptr inbounds nuw %union.attr_s, ptr %6, i32 0, i32 0
  %18 = getelementptr inbounds nuw %struct.anon, ptr %17, i32 0, i32 0
  store i64 %3, ptr %18, align 8
  store ptr %0, ptr %7, align 8, !tbaa !30
  store i64 %1, ptr %8, align 8, !tbaa !9
  store i64 %2, ptr %9, align 8, !tbaa !9
  %19 = zext i1 %4 to i8
  store i8 %19, ptr %10, align 1, !tbaa !132
  call void @llvm.lifetime.start.p0(i64 8, ptr %11) #13
  %20 = load i64, ptr %8, align 8, !tbaa !9
  %21 = load i64, ptr %9, align 8, !tbaa !9
  %22 = add nsw i64 %20, %21
  store i64 %22, ptr %11, align 8, !tbaa !9
  %23 = load ptr, ptr %7, align 8, !tbaa !30
  %24 = load i64, ptr %11, align 8, !tbaa !9
  %25 = call zeroext i1 @attrbuf_ensure_capacity(ptr noundef %23, i64 noundef %24)
  br i1 %25, label %27, label %26

26:                                               ; preds = %5
  store i32 1, ptr %12, align 4
  br label %92

27:                                               ; preds = %5
  call void @llvm.lifetime.start.p0(i64 8, ptr %13) #13
  %28 = load ptr, ptr %7, align 8, !tbaa !30
  %29 = getelementptr inbounds nuw %struct.attrbuf_s, ptr %28, i32 0, i32 2
  %30 = load i64, ptr %29, align 8, !tbaa !46
  %31 = load i64, ptr %11, align 8, !tbaa !9
  %32 = icmp slt i64 %30, %31
  br i1 %32, label %33, label %57

33:                                               ; preds = %27
  %34 = load ptr, ptr %7, align 8, !tbaa !30
  %35 = getelementptr inbounds nuw %struct.attrbuf_s, ptr %34, i32 0, i32 2
  %36 = load i64, ptr %35, align 8, !tbaa !46
  store i64 %36, ptr %13, align 8, !tbaa !9
  br label %37

37:                                               ; preds = %50, %33
  %38 = load i64, ptr %13, align 8, !tbaa !9
  %39 = load i64, ptr %11, align 8, !tbaa !9
  %40 = icmp slt i64 %38, %39
  br i1 %40, label %41, label %53

41:                                               ; preds = %37
  %42 = load ptr, ptr %7, align 8, !tbaa !30
  %43 = getelementptr inbounds nuw %struct.attrbuf_s, ptr %42, i32 0, i32 0
  %44 = load ptr, ptr %43, align 8, !tbaa !47
  %45 = load i64, ptr %13, align 8, !tbaa !9
  %46 = getelementptr inbounds %union.attr_s, ptr %44, i64 %45
  call void @llvm.lifetime.start.p0(i64 8, ptr %14) #13
  %47 = call i64 @attr_none()
  %48 = getelementptr inbounds nuw %union.attr_s, ptr %14, i32 0, i32 0
  %49 = getelementptr inbounds nuw %struct.anon, ptr %48, i32 0, i32 0
  store i64 %47, ptr %49, align 8
  call void @llvm.memcpy.p0.p0.i64(ptr align 8 %46, ptr align 8 %14, i64 8, i1 false), !tbaa.struct !28
  call void @llvm.lifetime.end.p0(i64 8, ptr %14) #13
  br label %50

50:                                               ; preds = %41
  %51 = load i64, ptr %13, align 8, !tbaa !9
  %52 = add nsw i64 %51, 1
  store i64 %52, ptr %13, align 8, !tbaa !9
  br label %37, !llvm.loop !221

53:                                               ; preds = %37
  %54 = load i64, ptr %11, align 8, !tbaa !9
  %55 = load ptr, ptr %7, align 8, !tbaa !30
  %56 = getelementptr inbounds nuw %struct.attrbuf_s, ptr %55, i32 0, i32 2
  store i64 %54, ptr %56, align 8, !tbaa !46
  br label %57

57:                                               ; preds = %53, %27
  %58 = load i64, ptr %8, align 8, !tbaa !9
  store i64 %58, ptr %13, align 8, !tbaa !9
  br label %59

59:                                               ; preds = %88, %57
  %60 = load i64, ptr %13, align 8, !tbaa !9
  %61 = load i64, ptr %11, align 8, !tbaa !9
  %62 = icmp slt i64 %60, %61
  br i1 %62, label %63, label %91

63:                                               ; preds = %59
  %64 = load ptr, ptr %7, align 8, !tbaa !30
  %65 = getelementptr inbounds nuw %struct.attrbuf_s, ptr %64, i32 0, i32 0
  %66 = load ptr, ptr %65, align 8, !tbaa !47
  %67 = load i64, ptr %13, align 8, !tbaa !9
  %68 = getelementptr inbounds %union.attr_s, ptr %66, i64 %67
  %69 = load i8, ptr %10, align 1, !tbaa !132, !range !124, !noundef !125
  %70 = trunc i8 %69 to i1
  store i1 false, ptr %16, align 1
  br i1 %70, label %71, label %86

71:                                               ; preds = %63
  call void @llvm.lifetime.start.p0(i64 8, ptr %15) #13
  store i1 true, ptr %16, align 1
  %72 = load ptr, ptr %7, align 8, !tbaa !30
  %73 = getelementptr inbounds nuw %struct.attrbuf_s, ptr %72, i32 0, i32 0
  %74 = load ptr, ptr %73, align 8, !tbaa !47
  %75 = load i64, ptr %13, align 8, !tbaa !9
  %76 = getelementptr inbounds %union.attr_s, ptr %74, i64 %75
  %77 = getelementptr inbounds nuw %union.attr_s, ptr %76, i32 0, i32 0
  %78 = getelementptr inbounds nuw %struct.anon, ptr %77, i32 0, i32 0
  %79 = load i64, ptr %78, align 8
  %80 = getelementptr inbounds nuw %union.attr_s, ptr %6, i32 0, i32 0
  %81 = getelementptr inbounds nuw %struct.anon, ptr %80, i32 0, i32 0
  %82 = load i64, ptr %81, align 8
  %83 = call i64 @attr_update_with(i64 %79, i64 %82)
  %84 = getelementptr inbounds nuw %union.attr_s, ptr %15, i32 0, i32 0
  %85 = getelementptr inbounds nuw %struct.anon, ptr %84, i32 0, i32 0
  store i64 %83, ptr %85, align 8
  call void @llvm.memcpy.p0.p0.i64(ptr align 8 %68, ptr align 8 %15, i64 8, i1 false), !tbaa.struct !28
  call void @llvm.lifetime.end.p0(i64 8, ptr %15) #13
  br label %87

86:                                               ; preds = %63
  call void @llvm.memcpy.p0.p0.i64(ptr align 8 %68, ptr align 8 %6, i64 8, i1 false), !tbaa.struct !28
  br label %87

87:                                               ; preds = %86, %71
  br label %88

88:                                               ; preds = %87
  %89 = load i64, ptr %13, align 8, !tbaa !9
  %90 = add nsw i64 %89, 1
  store i64 %90, ptr %13, align 8, !tbaa !9
  br label %59, !llvm.loop !222

91:                                               ; preds = %59
  call void @llvm.lifetime.end.p0(i64 8, ptr %13) #13
  store i32 0, ptr %12, align 4
  br label %92

92:                                               ; preds = %91, %26
  call void @llvm.lifetime.end.p0(i64 8, ptr %11) #13
  %93 = load i32, ptr %12, align 4
  switch i32 %93, label %95 [
    i32 0, label %94
    i32 1, label %94
  ]

94:                                               ; preds = %92, %92
  ret void

95:                                               ; preds = %92
  unreachable
}