; Function Attrs: nounwind uwtable
define internal fastcc void @attrbuf_update_set_at(ptr noundef captures(none) %0, i64 noundef %1, i64 noundef range(i64 1, 0) %2, i64 %3, i1 noundef zeroext %4) unnamed_addr #0 {
  %.fr41 = freeze i64 %3
  %6 = add nsw i64 %2, %1
  %7 = getelementptr inbounds nuw i8, ptr %0, i64 8
  %8 = load i64, ptr %7, align 8, !tbaa !37
  %.not.i = icmp sgt i64 %6, %8
  br i1 %.not.i, label %9, label %26

9:                                                ; preds = %5
  %10 = icmp slt i64 %8, 1
  br i1 %10, label %17, label %11

11:                                               ; preds = %9
  %12 = icmp samesign ugt i64 %8, 1000
  br i1 %12, label %13, label %15

13:                                               ; preds = %11
  %14 = add nuw nsw i64 %8, 1000
  br label %17

15:                                               ; preds = %11
  %16 = shl nuw nsw i64 %8, 1
  br label %17

17:                                               ; preds = %15, %13, %9
  %18 = phi i64 [ 240, %9 ], [ %14, %13 ], [ %16, %15 ]
  %spec.select.i = tail call i64 @llvm.smax.i64(i64 %6, i64 %18)
  %19 = getelementptr inbounds nuw i8, ptr %0, i64 24
  %20 = load ptr, ptr %19, align 8, !tbaa !32
  %21 = load ptr, ptr %0, align 8, !tbaa !36
  %22 = shl nsw i64 %spec.select.i, 3
  %23 = getelementptr i8, ptr %20, i64 8
  %.val.i = load ptr, ptr %23, align 8, !tbaa !35
  %24 = tail call ptr %.val.i(ptr noundef %21, i64 noundef %22) #32
  %.not22.i = icmp eq ptr %24, null
  br i1 %.not22.i, label %attrbuf_ensure_capacity.exit, label %25

25:                                               ; preds = %17
  store ptr %24, ptr %0, align 8, !tbaa !36
  store i64 %spec.select.i, ptr %7, align 8, !tbaa !37
  br label %26

26:                                               ; preds = %5, %25
  %27 = getelementptr inbounds nuw i8, ptr %0, i64 16
  %28 = load i64, ptr %27, align 8, !tbaa !41
  %29 = icmp slt i64 %28, %6
  br i1 %29, label %.preheader, label %35

.preheader:                                       ; preds = %26, %.preheader
  %.028 = phi i64 [ %32, %.preheader ], [ %28, %26 ]
  %30 = load ptr, ptr %0, align 8, !tbaa !36
  %31 = getelementptr inbounds %union.attr_s, ptr %30, i64 %.028
  store i64 0, ptr %31, align 8, !tbaa !4
  %32 = add nsw i64 %.028, 1
  %33 = icmp slt i64 %32, %6
  br i1 %33, label %.preheader, label %34, !llvm.loop !226

34:                                               ; preds = %.preheader
  store i64 %6, ptr %27, align 8, !tbaa !41
  br label %35

35:                                               ; preds = %34, %26
  %36 = icmp sgt i64 %2, 0
  br i1 %36, label %.lr.ph, label %attrbuf_ensure_capacity.exit

.lr.ph:                                           ; preds = %35
  %37 = and i64 %.fr41, 268435455
  %38 = and i64 %.fr41, 1152921500311879680
  %.not25.i = icmp eq i64 %38, 0
  %39 = and i64 %.fr41, 805306368
  %.not26.i = icmp eq i64 %39, 0
  %.not27.i = icmp ult i64 %.fr41, 4611686018427387904
  %40 = and i64 %.fr41, -4611686018427387904
  %41 = and i64 %.fr41, 3221225472
  %.not28.i = icmp eq i64 %41, 0
  %42 = and i64 %.fr41, 3458764513820540928
  %.not29.i = icmp eq i64 %42, 0
  br i1 %4, label %.lr.ph.split.us, label %.lr.ph.split

.lr.ph.split.us:                                  ; preds = %.lr.ph
  %.not.i26 = icmp eq i64 %37, 0
  br i1 %.not.i26, label %.lr.ph.split.us.split.us, label %.lr.ph.split.us.split

.lr.ph.split.us.split.us:                         ; preds = %.lr.ph.split.us, %.lr.ph.split.us.split.us
  %.129.us.us = phi i64 [ %56, %.lr.ph.split.us.split.us ], [ %1, %.lr.ph.split.us ]
  %43 = load ptr, ptr %0, align 8, !tbaa !36
  %44 = getelementptr inbounds %union.attr_s, ptr %43, i64 %.129.us.us
  %45 = load i64, ptr %44, align 8
  %46 = and i64 %45, -1152921500311879681
  %47 = or disjoint i64 %46, %38
  %.sroa.013.1.i.us.us = select i1 %.not25.i, i64 %45, i64 %47
  %48 = and i64 %.sroa.013.1.i.us.us, -805306369
  %49 = or disjoint i64 %48, %39
  %.sroa.013.2.i.us.us = select i1 %.not26.i, i64 %.sroa.013.1.i.us.us, i64 %49
  %50 = and i64 %.sroa.013.2.i.us.us, 4611686018427387903
  %51 = or disjoint i64 %50, %40
  %.sroa.013.3.i.us.us = select i1 %.not27.i, i64 %.sroa.013.2.i.us.us, i64 %51
  %52 = and i64 %.sroa.013.3.i.us.us, -3221225473
  %53 = or disjoint i64 %52, %41
  %.sroa.013.4.i.us.us = select i1 %.not28.i, i64 %.sroa.013.3.i.us.us, i64 %53
  %54 = and i64 %.sroa.013.4.i.us.us, -3458764513820540929
  %55 = or disjoint i64 %54, %42
  %.sroa.013.5.i.us.us = select i1 %.not29.i, i64 %.sroa.013.4.i.us.us, i64 %55
  store i64 %.sroa.013.5.i.us.us, ptr %44, align 8, !tbaa !4
  %56 = add nsw i64 %.129.us.us, 1
  %57 = icmp slt i64 %56, %6
  br i1 %57, label %.lr.ph.split.us.split.us, label %attrbuf_ensure_capacity.exit, !llvm.loop !227

.lr.ph.split.us.split:                            ; preds = %.lr.ph.split.us
  br i1 %.not25.i, label %.lr.ph.split.us.split.split.us, label %.lr.ph.split.us.split.split

.lr.ph.split.us.split.split.us:                   ; preds = %.lr.ph.split.us.split, %.lr.ph.split.us.split.split.us
  %.129.us.us30 = phi i64 [ %71, %.lr.ph.split.us.split.split.us ], [ %1, %.lr.ph.split.us.split ]
  %58 = load ptr, ptr %0, align 8, !tbaa !36
  %59 = getelementptr inbounds %union.attr_s, ptr %58, i64 %.129.us.us30
  %60 = load i64, ptr %59, align 8
  %61 = and i64 %60, -268435456
  %62 = or disjoint i64 %61, %37
  %63 = and i64 %62, -805306369
  %64 = or disjoint i64 %63, %39
  %.sroa.013.2.i.us.us32 = select i1 %.not26.i, i64 %62, i64 %64
  %65 = and i64 %.sroa.013.2.i.us.us32, 4611686018427387903
  %66 = or disjoint i64 %65, %40
  %.sroa.013.3.i.us.us33 = select i1 %.not27.i, i64 %.sroa.013.2.i.us.us32, i64 %66
  %67 = and i64 %.sroa.013.3.i.us.us33, -3221225473
  %68 = or disjoint i64 %67, %41
  %.sroa.013.4.i.us.us34 = select i1 %.not28.i, i64 %.sroa.013.3.i.us.us33, i64 %68
  %69 = and i64 %.sroa.013.4.i.us.us34, -3458764513820540929
  %70 = or disjoint i64 %69, %42
  %.sroa.013.5.i.us.us35 = select i1 %.not29.i, i64 %.sroa.013.4.i.us.us34, i64 %70
  store i64 %.sroa.013.5.i.us.us35, ptr %59, align 8, !tbaa !4
  %71 = add nsw i64 %.129.us.us30, 1
  %72 = icmp slt i64 %71, %6
  br i1 %72, label %.lr.ph.split.us.split.split.us, label %attrbuf_ensure_capacity.exit, !llvm.loop !227

.lr.ph.split.us.split.split:                      ; preds = %.lr.ph.split.us.split
  %invariant.op52 = and i64 %.fr41, 1152921500580315135
  br i1 %.not26.i, label %.lr.ph.split.us.split.split.split.us, label %.lr.ph.split.us.split.split.split.preheader

.lr.ph.split.us.split.split.split.preheader:      ; preds = %.lr.ph.split.us.split.split
  %invariant.op50 = and i64 %.fr41, 1152921501385621503
  br label %.lr.ph.split.us.split.split.split

.lr.ph.split.us.split.split.split.us:             ; preds = %.lr.ph.split.us.split.split, %.lr.ph.split.us.split.split.split.us
  %.129.us.us36 = phi i64 [ %83, %.lr.ph.split.us.split.split.split.us ], [ %1, %.lr.ph.split.us.split.split ]
  %73 = load ptr, ptr %0, align 8, !tbaa !36
  %74 = getelementptr inbounds %union.attr_s, ptr %73, i64 %.129.us.us36
  %75 = load i64, ptr %74, align 8
  %76 = and i64 %75, -1152921500580315136
  %.reass = or disjoint i64 %76, %invariant.op52
  %77 = and i64 %.reass, 4611686018427387903
  %78 = or disjoint i64 %77, %40
  %.sroa.013.3.i.us.us38 = select i1 %.not27.i, i64 %.reass, i64 %78
  %79 = and i64 %.sroa.013.3.i.us.us38, -3221225473
  %80 = or disjoint i64 %79, %41
  %.sroa.013.4.i.us.us39 = select i1 %.not28.i, i64 %.sroa.013.3.i.us.us38, i64 %80
  %81 = and i64 %.sroa.013.4.i.us.us39, -3458764513820540929
  %82 = or disjoint i64 %81, %42
  %.sroa.013.5.i.us.us40 = select i1 %.not29.i, i64 %.sroa.013.4.i.us.us39, i64 %82
  store i64 %.sroa.013.5.i.us.us40, ptr %74, align 8, !tbaa !4
  %83 = add nsw i64 %.129.us.us36, 1
  %84 = icmp slt i64 %83, %6
  br i1 %84, label %.lr.ph.split.us.split.split.split.us, label %attrbuf_ensure_capacity.exit, !llvm.loop !227

.lr.ph.split.us.split.split.split:                ; preds = %.lr.ph.split.us.split.split.split.preheader, %.lr.ph.split.us.split.split.split
  %.129.us = phi i64 [ %95, %.lr.ph.split.us.split.split.split ], [ %1, %.lr.ph.split.us.split.split.split.preheader ]
  %85 = load ptr, ptr %0, align 8, !tbaa !36
  %86 = getelementptr inbounds %union.attr_s, ptr %85, i64 %.129.us
  %87 = load i64, ptr %86, align 8
  %88 = and i64 %87, -1152921501385621504
  %.reass51 = or disjoint i64 %88, %invariant.op50
  %89 = and i64 %.reass51, 4611686018427387903
  %90 = or disjoint i64 %89, %40
  %.sroa.013.3.i.us = select i1 %.not27.i, i64 %.reass51, i64 %90
  %91 = and i64 %.sroa.013.3.i.us, -3221225473
  %92 = or disjoint i64 %91, %41
  %.sroa.013.4.i.us = select i1 %.not28.i, i64 %.sroa.013.3.i.us, i64 %92
  %93 = and i64 %.sroa.013.4.i.us, -3458764513820540929
  %94 = or disjoint i64 %93, %42
  %.sroa.013.5.i.us = select i1 %.not29.i, i64 %.sroa.013.4.i.us, i64 %94
  store i64 %.sroa.013.5.i.us, ptr %86, align 8, !tbaa !4
  %95 = add nsw i64 %.129.us, 1
  %96 = icmp slt i64 %95, %6
  br i1 %96, label %.lr.ph.split.us.split.split.split, label %attrbuf_ensure_capacity.exit, !llvm.loop !227

.lr.ph.split:                                     ; preds = %.lr.ph, %.lr.ph.split
  %.129 = phi i64 [ %99, %.lr.ph.split ], [ %1, %.lr.ph ]
  %97 = load ptr, ptr %0, align 8, !tbaa !36
  %98 = getelementptr inbounds %union.attr_s, ptr %97, i64 %.129
  store i64 %.fr41, ptr %98, align 8, !tbaa !4
  %99 = add nsw i64 %.129, 1
  %100 = icmp slt i64 %99, %6
  br i1 %100, label %.lr.ph.split, label %attrbuf_ensure_capacity.exit, !llvm.loop !227

attrbuf_ensure_capacity.exit:                     ; preds = %.lr.ph.split, %.lr.ph.split.us.split.split.split, %.lr.ph.split.us.split.split.split.us, %.lr.ph.split.us.split.split.us, %.lr.ph.split.us.split.us, %35, %17
  ret void
}